	.file	"prog2.c"
	.text
	.globl	foo
	.type	foo, @function
foo:
.LFB6:
	.cfi_startproc
	endbr32
	pushl	%ebp
	.cfi_def_cfa_offset 8
	.cfi_offset 5, -8
	movl	%esp, %ebp
	.cfi_def_cfa_register 5
	pushl	%ebx
	subl	$36, %esp
	.cfi_offset 3, -12
	call	__x86.get_pc_thunk.ax
	addl	$_GLOBAL_OFFSET_TABLE_, %eax
	movl	8(%ebp), %edx
	movl	%edx, -28(%ebp)
	movl	%gs:20, %ecx
	movl	%ecx, -12(%ebp)
	xorl	%ecx, %ecx
	subl	$8, %esp
	pushl	-28(%ebp)
	leal	-24(%ebp), %edx
	pushl	%edx
	movl	%eax, %ebx
	call	strcpy@PLT
	addl	$16, %esp
	nop
	movl	-12(%ebp), %eax
	xorl	%gs:20, %eax
	je	.L2
	call	__stack_chk_fail_local
.L2:
	movl	-4(%ebp), %ebx
	leave
	.cfi_restore 5
	.cfi_restore 3
	.cfi_def_cfa 4, 4
	ret
	.cfi_endproc
.LFE6:
	.size	foo, .-foo
	.section	.rodata
.LC0:
	.string	"Returned Properly \n"
	.text
	.globl	main
	.type	main, @function
main:
.LFB7:
	.cfi_startproc
	endbr32
	leal	4(%esp), %ecx
	.cfi_def_cfa 1, 0
	andl	$-16, %esp
	pushl	-4(%ecx)
	pushl	%ebp
	.cfi_escape 0x10,0x5,0x2,0x75,0
	movl	%esp, %ebp
	pushl	%ebx
	pushl	%ecx
	.cfi_escape 0xf,0x3,0x75,0x78,0x6
	.cfi_escape 0x10,0x3,0x2,0x75,0x7c
	call	__x86.get_pc_thunk.bx
	addl	$_GLOBAL_OFFSET_TABLE_, %ebx
	movl	%ecx, %eax
	movl	4(%eax), %eax
	addl	$4, %eax
	movl	(%eax), %eax
	subl	$12, %esp
	pushl	%eax
	call	foo
	addl	$16, %esp
	subl	$12, %esp
	leal	.LC0@GOTOFF(%ebx), %eax
	pushl	%eax
	call	puts@PLT
	addl	$16, %esp
	movl	$0, %eax
	leal	-8(%ebp), %esp
	popl	%ecx
	.cfi_restore 1
	.cfi_def_cfa 1, 0
	popl	%ebx
	.cfi_restore 3
	popl	%ebp
	.cfi_restore 5
	leal	-4(%ecx), %esp
	.cfi_def_cfa 4, 4
	ret
	.cfi_endproc
.LFE7:
	.size	main, .-main
	.section	.text.__x86.get_pc_thunk.ax,"axG",@progbits,__x86.get_pc_thunk.ax,comdat
	.globl	__x86.get_pc_thunk.ax
	.hidden	__x86.get_pc_thunk.ax
	.type	__x86.get_pc_thunk.ax, @function
__x86.get_pc_thunk.ax:
.LFB8:
	.cfi_startproc
	movl	(%esp), %eax
	ret
	.cfi_endproc
.LFE8:
	.section	.text.__x86.get_pc_thunk.bx,"axG",@progbits,__x86.get_pc_thunk.bx,comdat
	.globl	__x86.get_pc_thunk.bx
	.hidden	__x86.get_pc_thunk.bx
	.type	__x86.get_pc_thunk.bx, @function
__x86.get_pc_thunk.bx:
.LFB9:
	.cfi_startproc
	movl	(%esp), %ebx
	ret
	.cfi_endproc
.LFE9:
	.hidden	__stack_chk_fail_local
	.ident	"GCC: (Ubuntu 9.3.0-17ubuntu1~20.04) 9.3.0"
	.section	.note.GNU-stack,"",@progbits
	.section	.note.gnu.property,"a"
	.align 4
	.long	 1f - 0f
	.long	 4f - 1f
	.long	 5
0:
	.string	 "GNU"
1:
	.align 4
	.long	 0xc0000002
	.long	 3f - 2f
2:
	.long	 0x3
3:
	.align 4
4:
